; Function Attrs: nounwind uwtable
define void @dt_control_quit() local_unnamed_addr #0 {
  %1 = load ptr, ptr getelementptr inbounds nuw (i8, ptr @darktable, i64 88), align 8, !tbaa !107
  %.not.i = icmp eq ptr %1, null
  br i1 %.not.i, label %dt_control_running.exit.thread, label %dt_control_running.exit

dt_control_running.exit:                          ; preds = %0
  %2 = getelementptr inbounds nuw i8, ptr %1, i64 9744
  %3 = load atomic i32, ptr %2 seq_cst, align 4
  %.not = icmp eq i32 %3, 1
  br i1 %.not, label %4, label %dt_control_running.exit.thread

4:                                                ; preds = %dt_control_running.exit
  %5 = load ptr, ptr getelementptr inbounds nuw (i8, ptr @darktable, i64 88), align 8, !tbaa !107
  tail call void @dt_printers_abort_discovery() #13
  %6 = getelementptr inbounds nuw i8, ptr %5, i64 9748
  br label %7

7:                                                ; preds = %4, %13
  %.010 = phi i32 [ 0, %4 ], [ %14, %13 ]
  %8 = load i32, ptr %6, align 4, !tbaa !92
  %.not7 = icmp eq i32 %8, 0
  br i1 %.not7, label %13, label %.critedge

.critedge:                                        ; preds = %13, %7
  %9 = getelementptr inbounds nuw i8, ptr %5, i64 9800
  %10 = tail call i32 @pthread_mutex_lock(ptr noundef nonnull %9) #13
  %11 = getelementptr inbounds nuw i8, ptr %5, i64 9744
  store atomic i32 -1, ptr %11 seq_cst, align 4
  %12 = tail call i32 @pthread_mutex_unlock(ptr noundef nonnull %9) #13
  br label %dt_control_running.exit.thread

13:                                               ; preds = %7
  tail call void @g_usleep(i64 noundef 1000) #13
  %14 = add nuw nsw i32 %.010, 1
  %exitcond.not = icmp eq i32 %14, 40000
  br i1 %exitcond.not, label %.critedge, label %7

dt_control_running.exit.thread:                   ; preds = %0, %.critedge, %dt_control_running.exit
  %15 = load atomic i32, ptr getelementptr inbounds nuw (i8, ptr @darktable, i64 3324) seq_cst, align 4
  %.not8 = icmp eq i32 %15, 0
  br i1 %.not8, label %17, label %16

16:                                               ; preds = %dt_control_running.exit.thread
  tail call void (...) @dt_gui_gtk_quit() #13
  tail call void @gtk_main_quit() #13
  br label %17

17:                                               ; preds = %16, %dt_control_running.exit.thread
  ret void
}